target datalayout = "e-m:e-p270:32:32-p271:32:32-p272:64:64-i64:64-i128:128-f80:128-n8:16:32:64-S128"
target triple = "x86_64-pc-linux-gnu"

%struct._priv_exr_context_t = type { i8, i8, i8, i8, i8, i8, i8, i8, %struct.exr_attr_string_t, %struct.exr_attr_string_t, ptr, ptr, ptr, ptr, ptr, ptr, ptr, ptr, i32, i32, i32, i32, i32, float, ptr, ptr, ptr, i64, ptr, ptr, i64, i32, i32, i32, i32, %struct._priv_exr_part_t, ptr, ptr, %struct.exr_attribute_list, %union.pthread_mutex_t, i8, i8, [2 x i8], i32 }
%struct.exr_attr_string_t = type { i32, i32, ptr }
%struct._priv_exr_part_t = type { i32, i32, %struct.exr_attribute_list, ptr, ptr, ptr, ptr, ptr, ptr, ptr, ptr, ptr, ptr, ptr, ptr, ptr, ptr, %struct.exr_attr_box2i_t, %struct.exr_attr_box2i_t, i32, i32, i32, float, i32, i32, ptr, ptr, ptr, ptr, i64, i16, i16, i32, i64, i64 }
%struct.exr_attr_box2i_t = type { %struct.exr_attr_v2i_t, %struct.exr_attr_v2i_t }
%struct.exr_attr_v2i_t = type { i32, i32 }
%struct.exr_attribute_list = type { i32, i32, ptr, ptr }
%union.pthread_mutex_t = type { %struct.__pthread_mutex_s }
%struct.__pthread_mutex_s = type { i32, i32, i32, i32, i32, i16, i16, %struct.__pthread_internal_list }
%struct.__pthread_internal_list = type { ptr, ptr }
%struct._HufDec = type { i32, i32, ptr }

; Function Attrs: nounwind uwtable
define internal i32 @hufBuildDecTable(ptr noundef %0, ptr noundef %1, i32 noundef %2, i32 noundef %3, ptr noundef %4) #0 {
  %6 = alloca i32, align 4
  %7 = alloca ptr, align 8
  %8 = alloca ptr, align 8
  %9 = alloca i32, align 4
  %10 = alloca i32, align 4
  %11 = alloca ptr, align 8
  %12 = alloca ptr, align 8
  %13 = alloca ptr, align 8
  %14 = alloca i64, align 8
  %15 = alloca i32, align 4
  %16 = alloca i32, align 4
  %17 = alloca ptr, align 8
  %18 = alloca ptr, align 8
  %19 = alloca i32, align 4
  %20 = alloca ptr, align 8
  %21 = alloca i64, align 8
  store ptr %0, ptr %7, align 8, !tbaa !51
  store ptr %1, ptr %8, align 8, !tbaa !7
  store i32 %2, ptr %9, align 4, !tbaa !13
  store i32 %3, ptr %10, align 4, !tbaa !13
  store ptr %4, ptr %11, align 8, !tbaa !58
  call void @llvm.lifetime.start.p0(i64 8, ptr %12) #8
  %22 = load ptr, ptr %7, align 8, !tbaa !51
  %23 = icmp ne ptr %22, null
  br i1 %23, label %24, label %28

24:                                               ; preds = %5
  %25 = load ptr, ptr %7, align 8, !tbaa !51
  %26 = getelementptr inbounds nuw %struct._priv_exr_context_t, ptr %25, i32 0, i32 16
  %27 = load ptr, ptr %26, align 8, !tbaa !96
  br label %29

28:                                               ; preds = %5
  br label %29

29:                                               ; preds = %28, %24
  %30 = phi ptr [ %27, %24 ], [ @internal_exr_alloc, %28 ]
  store ptr %30, ptr %12, align 8, !tbaa !10
  call void @llvm.lifetime.start.p0(i64 8, ptr %13) #8
  %31 = load ptr, ptr %7, align 8, !tbaa !51
  %32 = icmp ne ptr %31, null
  br i1 %32, label %33, label %37

33:                                               ; preds = %29
  %34 = load ptr, ptr %7, align 8, !tbaa !51
  %35 = getelementptr inbounds nuw %struct._priv_exr_context_t, ptr %34, i32 0, i32 17
  %36 = load ptr, ptr %35, align 8, !tbaa !97
  br label %38

37:                                               ; preds = %29
  br label %38

38:                                               ; preds = %37, %33
  %39 = phi ptr [ %36, %33 ], [ @internal_exr_free, %37 ]
  store ptr %39, ptr %13, align 8, !tbaa !10
  br label %40

40:                                               ; preds = %212, %38
  %41 = load i32, ptr %9, align 4, !tbaa !13
  %42 = load i32, ptr %10, align 4, !tbaa !13
  %43 = icmp ule i32 %41, %42
  br i1 %43, label %44, label %215

44:                                               ; preds = %40
  call void @llvm.lifetime.start.p0(i64 8, ptr %14) #8
  %45 = load ptr, ptr %8, align 8, !tbaa !7
  %46 = load i32, ptr %9, align 4, !tbaa !13
  %47 = zext i32 %46 to i64
  %48 = getelementptr inbounds nuw i64, ptr %45, i64 %47
  %49 = load i64, ptr %48, align 8, !tbaa !3
  %50 = lshr i64 %49, 6
  store i64 %50, ptr %14, align 8, !tbaa !3
  call void @llvm.lifetime.start.p0(i64 4, ptr %15) #8
  %51 = load ptr, ptr %8, align 8, !tbaa !7
  %52 = load i32, ptr %9, align 4, !tbaa !13
  %53 = zext i32 %52 to i64
  %54 = getelementptr inbounds nuw i64, ptr %51, i64 %53
  %55 = load i64, ptr %54, align 8, !tbaa !3
  %56 = and i64 %55, 63
  %57 = trunc i64 %56 to i32
  store i32 %57, ptr %15, align 4, !tbaa !13
  %58 = load i64, ptr %14, align 8, !tbaa !3
  %59 = load i32, ptr %15, align 4, !tbaa !13
  %60 = zext i32 %59 to i64
  %61 = lshr i64 %58, %60
  %62 = icmp ne i64 %61, 0
  br i1 %62, label %63, label %64

63:                                               ; preds = %44
  store i32 23, ptr %6, align 4
  store i32 1, ptr %16, align 4
  br label %209

64:                                               ; preds = %44
  %65 = load i32, ptr %15, align 4, !tbaa !13
  %66 = icmp sgt i32 %65, 14
  br i1 %66, label %67, label %159

67:                                               ; preds = %64
  call void @llvm.lifetime.start.p0(i64 8, ptr %17) #8
  %68 = load ptr, ptr %11, align 8, !tbaa !58
  %69 = load i64, ptr %14, align 8, !tbaa !3
  %70 = load i32, ptr %15, align 4, !tbaa !13
  %71 = sub nsw i32 %70, 14
  %72 = zext i32 %71 to i64
  %73 = lshr i64 %69, %72
  %74 = getelementptr inbounds nuw %struct._HufDec, ptr %68, i64 %73
  store ptr %74, ptr %17, align 8, !tbaa !58
  %75 = load ptr, ptr %17, align 8, !tbaa !58
  %76 = getelementptr inbounds nuw %struct._HufDec, ptr %75, i32 0, i32 0
  %77 = load i32, ptr %76, align 8, !tbaa !98
  %78 = icmp ne i32 %77, 0
  br i1 %78, label %79, label %80

79:                                               ; preds = %67
  store i32 23, ptr %6, align 4
  store i32 1, ptr %16, align 4
  br label %156

80:                                               ; preds = %67
  %81 = load ptr, ptr %17, align 8, !tbaa !58
  %82 = getelementptr inbounds nuw %struct._HufDec, ptr %81, i32 0, i32 1
  %83 = load i32, ptr %82, align 4, !tbaa !100
  %84 = add i32 %83, 1
  store i32 %84, ptr %82, align 4, !tbaa !100
  %85 = load ptr, ptr %17, align 8, !tbaa !58
  %86 = getelementptr inbounds nuw %struct._HufDec, ptr %85, i32 0, i32 2
  %87 = load ptr, ptr %86, align 8, !tbaa !101
  %88 = icmp ne ptr %87, null
  br i1 %88, label %89, label %134

89:                                               ; preds = %80
  call void @llvm.lifetime.start.p0(i64 8, ptr %18) #8
  %90 = load ptr, ptr %17, align 8, !tbaa !58
  %91 = getelementptr inbounds nuw %struct._HufDec, ptr %90, i32 0, i32 2
  %92 = load ptr, ptr %91, align 8, !tbaa !101
  store ptr %92, ptr %18, align 8, !tbaa !20
  %93 = load ptr, ptr %12, align 8, !tbaa !10
  %94 = load ptr, ptr %17, align 8, !tbaa !58
  %95 = getelementptr inbounds nuw %struct._HufDec, ptr %94, i32 0, i32 1
  %96 = load i32, ptr %95, align 4, !tbaa !100
  %97 = zext i32 %96 to i64
  %98 = mul i64 4, %97
  %99 = call ptr %93(i64 noundef %98)
  %100 = load ptr, ptr %17, align 8, !tbaa !58
  %101 = getelementptr inbounds nuw %struct._HufDec, ptr %100, i32 0, i32 2
  store ptr %99, ptr %101, align 8, !tbaa !101
  %102 = load ptr, ptr %17, align 8, !tbaa !58
  %103 = getelementptr inbounds nuw %struct._HufDec, ptr %102, i32 0, i32 2
  %104 = load ptr, ptr %103, align 8, !tbaa !101
  %105 = icmp ne ptr %104, null
  br i1 %105, label %106, label %131

106:                                              ; preds = %89
  call void @llvm.lifetime.start.p0(i64 4, ptr %19) #8
  store i32 0, ptr %19, align 4, !tbaa !13
  br label %107

107:                                              ; preds = %127, %106
  %108 = load i32, ptr %19, align 4, !tbaa !13
  %109 = load ptr, ptr %17, align 8, !tbaa !58
  %110 = getelementptr inbounds nuw %struct._HufDec, ptr %109, i32 0, i32 1
  %111 = load i32, ptr %110, align 4, !tbaa !100
  %112 = sub i32 %111, 1
  %113 = icmp ult i32 %108, %112
  br i1 %113, label %115, label %114

114:                                              ; preds = %107
  store i32 5, ptr %16, align 4
  call void @llvm.lifetime.end.p0(i64 4, ptr %19) #8
  br label %130

115:                                              ; preds = %107
  %116 = load ptr, ptr %18, align 8, !tbaa !20
  %117 = load i32, ptr %19, align 4, !tbaa !13
  %118 = zext i32 %117 to i64
  %119 = getelementptr inbounds nuw i32, ptr %116, i64 %118
  %120 = load i32, ptr %119, align 4, !tbaa !13
  %121 = load ptr, ptr %17, align 8, !tbaa !58
  %122 = getelementptr inbounds nuw %struct._HufDec, ptr %121, i32 0, i32 2
  %123 = load ptr, ptr %122, align 8, !tbaa !101
  %124 = load i32, ptr %19, align 4, !tbaa !13
  %125 = zext i32 %124 to i64
  %126 = getelementptr inbounds nuw i32, ptr %123, i64 %125
  store i32 %120, ptr %126, align 4, !tbaa !13
  br label %127

127:                                              ; preds = %115
  %128 = load i32, ptr %19, align 4, !tbaa !13
  %129 = add i32 %128, 1
  store i32 %129, ptr %19, align 4, !tbaa !13
  br label %107, !llvm.loop !102

130:                                              ; preds = %114
  br label %131

131:                                              ; preds = %130, %89
  %132 = load ptr, ptr %13, align 8, !tbaa !10
  %133 = load ptr, ptr %18, align 8, !tbaa !20
  call void %132(ptr noundef %133)
  call void @llvm.lifetime.end.p0(i64 8, ptr %18) #8
  br label %139

134:                                              ; preds = %80
  %135 = load ptr, ptr %12, align 8, !tbaa !10
  %136 = call ptr %135(i64 noundef 4)
  %137 = load ptr, ptr %17, align 8, !tbaa !58
  %138 = getelementptr inbounds nuw %struct._HufDec, ptr %137, i32 0, i32 2
  store ptr %136, ptr %138, align 8, !tbaa !101
  br label %139

139:                                              ; preds = %134, %131
  %140 = load ptr, ptr %17, align 8, !tbaa !58
  %141 = getelementptr inbounds nuw %struct._HufDec, ptr %140, i32 0, i32 2
  %142 = load ptr, ptr %141, align 8, !tbaa !101
  %143 = icmp ne ptr %142, null
  br i1 %143, label %145, label %144

144:                                              ; preds = %139
  store i32 1, ptr %6, align 4
  store i32 1, ptr %16, align 4
  br label %156

145:                                              ; preds = %139
  %146 = load i32, ptr %9, align 4, !tbaa !13
  %147 = load ptr, ptr %17, align 8, !tbaa !58
  %148 = getelementptr inbounds nuw %struct._HufDec, ptr %147, i32 0, i32 2
  %149 = load ptr, ptr %148, align 8, !tbaa !101
  %150 = load ptr, ptr %17, align 8, !tbaa !58
  %151 = getelementptr inbounds nuw %struct._HufDec, ptr %150, i32 0, i32 1
  %152 = load i32, ptr %151, align 4, !tbaa !100
  %153 = sub i32 %152, 1
  %154 = zext i32 %153 to i64
  %155 = getelementptr inbounds nuw i32, ptr %149, i64 %154
  store i32 %146, ptr %155, align 4, !tbaa !13
  store i32 0, ptr %16, align 4
  br label %156

156:                                              ; preds = %145, %144, %79
  call void @llvm.lifetime.end.p0(i64 8, ptr %17) #8
  %157 = load i32, ptr %16, align 4
  switch i32 %157, label %209 [
    i32 0, label %158
  ]

158:                                              ; preds = %156
  br label %208

159:                                              ; preds = %64
  %160 = load i32, ptr %15, align 4, !tbaa !13
  %161 = icmp ne i32 %160, 0
  br i1 %161, label %162, label %207

162:                                              ; preds = %159
  call void @llvm.lifetime.start.p0(i64 8, ptr %20) #8
  %163 = load ptr, ptr %11, align 8, !tbaa !58
  %164 = load i64, ptr %14, align 8, !tbaa !3
  %165 = load i32, ptr %15, align 4, !tbaa !13
  %166 = sub nsw i32 14, %165
  %167 = zext i32 %166 to i64
  %168 = shl i64 %164, %167
  %169 = getelementptr inbounds nuw %struct._HufDec, ptr %163, i64 %168
  store ptr %169, ptr %20, align 8, !tbaa !58
  call void @llvm.lifetime.start.p0(i64 8, ptr %21) #8
  %170 = load i32, ptr %15, align 4, !tbaa !13
  %171 = sub nsw i32 14, %170
  %172 = zext i32 %171 to i64
  %173 = shl i64 1, %172
  store i64 %173, ptr %21, align 8, !tbaa !3
  br label %174

174:                                              ; preds = %196, %162
  %175 = load i64, ptr %21, align 8, !tbaa !3
  %176 = icmp ugt i64 %175, 0
  br i1 %176, label %178, label %177

177:                                              ; preds = %174
  store i32 8, ptr %16, align 4
  br label %201

178:                                              ; preds = %174
  %179 = load ptr, ptr %20, align 8, !tbaa !58
  %180 = getelementptr inbounds nuw %struct._HufDec, ptr %179, i32 0, i32 0
  %181 = load i32, ptr %180, align 8, !tbaa !98
  %182 = icmp ne i32 %181, 0
  br i1 %182, label %188, label %183

183:                                              ; preds = %178
  %184 = load ptr, ptr %20, align 8, !tbaa !58
  %185 = getelementptr inbounds nuw %struct._HufDec, ptr %184, i32 0, i32 2
  %186 = load ptr, ptr %185, align 8, !tbaa !101
  %187 = icmp ne ptr %186, null
  br i1 %187, label %188, label %189

188:                                              ; preds = %183, %178
  store i32 23, ptr %6, align 4
  store i32 1, ptr %16, align 4
  br label %201

189:                                              ; preds = %183
  %190 = load i32, ptr %15, align 4, !tbaa !13
  %191 = load ptr, ptr %20, align 8, !tbaa !58
  %192 = getelementptr inbounds nuw %struct._HufDec, ptr %191, i32 0, i32 0
  store i32 %190, ptr %192, align 8, !tbaa !98
  %193 = load i32, ptr %9, align 4, !tbaa !13
  %194 = load ptr, ptr %20, align 8, !tbaa !58
  %195 = getelementptr inbounds nuw %struct._HufDec, ptr %194, i32 0, i32 1
  store i32 %193, ptr %195, align 4, !tbaa !100
  br label %196

196:                                              ; preds = %189
  %197 = load i64, ptr %21, align 8, !tbaa !3
  %198 = add i64 %197, -1
  store i64 %198, ptr %21, align 8, !tbaa !3
  %199 = load ptr, ptr %20, align 8, !tbaa !58
  %200 = getelementptr inbounds nuw %struct._HufDec, ptr %199, i32 1
  store ptr %200, ptr %20, align 8, !tbaa !58
  br label %174, !llvm.loop !103

201:                                              ; preds = %188, %177
  call void @llvm.lifetime.end.p0(i64 8, ptr %21) #8
  %202 = load i32, ptr %16, align 4
  switch i32 %202, label %204 [
    i32 8, label %203
  ]

203:                                              ; preds = %201
  store i32 0, ptr %16, align 4
  br label %204

204:                                              ; preds = %203, %201
  call void @llvm.lifetime.end.p0(i64 8, ptr %20) #8
  %205 = load i32, ptr %16, align 4
  switch i32 %205, label %209 [
    i32 0, label %206
  ]

206:                                              ; preds = %204
  br label %207

207:                                              ; preds = %206, %159
  br label %208

208:                                              ; preds = %207, %158
  store i32 0, ptr %16, align 4
  br label %209

209:                                              ; preds = %208, %204, %156, %63
  call void @llvm.lifetime.end.p0(i64 4, ptr %15) #8
  call void @llvm.lifetime.end.p0(i64 8, ptr %14) #8
  %210 = load i32, ptr %16, align 4
  switch i32 %210, label %216 [
    i32 0, label %211
  ]

211:                                              ; preds = %209
  br label %212

212:                                              ; preds = %211
  %213 = load i32, ptr %9, align 4, !tbaa !13
  %214 = add i32 %213, 1
  store i32 %214, ptr %9, align 4, !tbaa !13
  br label %40, !llvm.loop !104

215:                                              ; preds = %40
  store i32 0, ptr %6, align 4
  store i32 1, ptr %16, align 4
  br label %216

216:                                              ; preds = %215, %209
  call void @llvm.lifetime.end.p0(i64 8, ptr %13) #8
  call void @llvm.lifetime.end.p0(i64 8, ptr %12) #8
  %217 = load i32, ptr %6, align 4
  ret i32 %217
}