; Function Attrs: nounwind uwtable
define internal fastcc range(i32 0, 24) i32 @hufBuildDecTable(ptr noundef readonly %0, ptr noundef readonly captures(none) %1, i32 noundef range(i32 0, 65537) %2, i32 noundef range(i32 0, 65537) %3, ptr noundef captures(none) %4) unnamed_addr #3 {
  %.not = icmp eq ptr %0, null
  br i1 %.not, label %.thread, label %6

6:                                                ; preds = %5
  %7 = getelementptr inbounds nuw i8, ptr %0, i64 88
  %8 = load ptr, ptr %7, align 8, !tbaa !124
  %9 = getelementptr inbounds nuw i8, ptr %0, i64 96
  %10 = load ptr, ptr %9, align 8, !tbaa !96
  br label %.thread

.thread:                                          ; preds = %5, %6
  %11 = phi ptr [ %8, %6 ], [ @internal_exr_alloc, %5 ]
  %12 = phi ptr [ %10, %6 ], [ @internal_exr_free, %5 ]
  %.not74102 = icmp samesign ugt i32 %2, %3
  br i1 %.not74102, label %.thread84, label %.lr.ph104.preheader

.lr.ph104.preheader:                              ; preds = %.thread
  %13 = zext nneg i32 %2 to i64
  %14 = add nuw nsw i32 %3, 1
  %wide.trip.count = zext nneg i32 %14 to i64
  br label %.lr.ph104

.lr.ph104:                                        ; preds = %.lr.ph104.preheader, %.loopexit97
  %indvars.iv114 = phi i64 [ %13, %.lr.ph104.preheader ], [ %indvars.iv.next115, %.loopexit97 ]
  %15 = getelementptr inbounds nuw i64, ptr %1, i64 %indvars.iv114
  %16 = load i64, ptr %15, align 8, !tbaa !7
  %17 = lshr i64 %16, 6
  %18 = trunc i64 %16 to i32
  %19 = and i32 %18, 63
  %20 = and i64 %16, 63
  %21 = lshr i64 %17, %20
  %.not75 = icmp eq i64 %21, 0
  br i1 %.not75, label %22, label %.thread84

22:                                               ; preds = %.lr.ph104
  %23 = icmp samesign ugt i32 %19, 14
  br i1 %23, label %24, label %58

24:                                               ; preds = %22
  %25 = add nsw i32 %19, -14
  %26 = zext nneg i32 %25 to i64
  %27 = lshr i64 %17, %26
  %28 = getelementptr inbounds nuw %struct._HufDec, ptr %4, i64 %27
  %29 = load i32, ptr %28, align 8, !tbaa !125
  %.not80 = icmp eq i32 %29, 0
  br i1 %.not80, label %30, label %.thread84

30:                                               ; preds = %24
  %31 = getelementptr inbounds nuw i8, ptr %28, i64 4
  %32 = load i32, ptr %31, align 4, !tbaa !126
  %33 = add i32 %32, 1
  store i32 %33, ptr %31, align 4, !tbaa !126
  %34 = getelementptr inbounds nuw i8, ptr %28, i64 8
  %35 = load ptr, ptr %34, align 8, !tbaa !97
  %.not81 = icmp eq ptr %35, null
  br i1 %.not81, label %48, label %36

36:                                               ; preds = %30
  %37 = zext i32 %33 to i64
  %38 = shl nuw nsw i64 %37, 2
  %39 = tail call ptr %11(i64 noundef %38) #10
  store ptr %39, ptr %34, align 8, !tbaa !97
  %.not82 = icmp eq ptr %39, null
  br i1 %.not82, label %.loopexit, label %.preheader

.preheader:                                       ; preds = %36
  %40 = load i32, ptr %31, align 4, !tbaa !126
  %.not111 = icmp eq i32 %40, 1
  br i1 %.not111, label %.loopexit, label %.lr.ph

.lr.ph:                                           ; preds = %.preheader, %.lr.ph
  %indvars.iv = phi i64 [ %indvars.iv.next, %.lr.ph ], [ 0, %.preheader ]
  %41 = getelementptr inbounds nuw i32, ptr %35, i64 %indvars.iv
  %42 = load i32, ptr %41, align 4, !tbaa !17
  %43 = getelementptr inbounds nuw i32, ptr %39, i64 %indvars.iv
  store i32 %42, ptr %43, align 4, !tbaa !17
  %indvars.iv.next = add nuw nsw i64 %indvars.iv, 1
  %44 = load i32, ptr %31, align 4, !tbaa !126
  %45 = add i32 %44, -1
  %46 = zext i32 %45 to i64
  %47 = icmp samesign ult i64 %indvars.iv.next, %46
  br i1 %47, label %.lr.ph, label %.loopexit, !llvm.loop !127

.loopexit:                                        ; preds = %.lr.ph, %.preheader, %36
  tail call void %12(ptr noundef nonnull %35) #10
  %.pr = load ptr, ptr %34, align 8, !tbaa !97
  br label %50

48:                                               ; preds = %30
  %49 = tail call ptr %11(i64 noundef 4) #10
  store ptr %49, ptr %34, align 8, !tbaa !97
  br label %50

50:                                               ; preds = %48, %.loopexit
  %51 = phi ptr [ %49, %48 ], [ %.pr, %.loopexit ]
  %.not83 = icmp eq ptr %51, null
  br i1 %.not83, label %.thread84, label %52

52:                                               ; preds = %50
  %53 = load i32, ptr %31, align 4, !tbaa !126
  %54 = add i32 %53, -1
  %55 = zext i32 %54 to i64
  %56 = getelementptr inbounds nuw i32, ptr %51, i64 %55
  %57 = trunc nuw nsw i64 %indvars.iv114 to i32
  store i32 %57, ptr %56, align 4, !tbaa !17
  br label %.loopexit97

58:                                               ; preds = %22
  %.not76 = icmp eq i32 %19, 0
  br i1 %.not76, label %.loopexit97, label %59

59:                                               ; preds = %58
  %60 = sub nuw nsw i32 14, %19
  %61 = zext nneg i32 %60 to i64
  %62 = shl i64 %17, %61
  %63 = getelementptr inbounds nuw %struct._HufDec, ptr %4, i64 %62
  %64 = shl nuw nsw i64 1, %61
  %65 = trunc nuw nsw i64 %indvars.iv114 to i32
  br label %66

66:                                               ; preds = %59, %71
  %.0100 = phi i64 [ %64, %59 ], [ %73, %71 ]
  %.06199 = phi ptr [ %63, %59 ], [ %74, %71 ]
  %67 = load i32, ptr %.06199, align 8, !tbaa !125
  %.not78 = icmp eq i32 %67, 0
  br i1 %.not78, label %68, label %.thread84

68:                                               ; preds = %66
  %69 = getelementptr inbounds nuw i8, ptr %.06199, i64 8
  %70 = load ptr, ptr %69, align 8, !tbaa !97
  %.not79 = icmp eq ptr %70, null
  br i1 %.not79, label %71, label %.thread84

71:                                               ; preds = %68
  store i32 %19, ptr %.06199, align 8, !tbaa !125
  %72 = getelementptr inbounds nuw i8, ptr %.06199, i64 4
  store i32 %65, ptr %72, align 4, !tbaa !126
  %73 = add nsw i64 %.0100, -1
  %74 = getelementptr inbounds nuw i8, ptr %.06199, i64 16
  %.not77 = icmp eq i64 %73, 0
  br i1 %.not77, label %.loopexit97, label %66, !llvm.loop !128

.loopexit97:                                      ; preds = %71, %52, %58
  %indvars.iv.next115 = add nuw nsw i64 %indvars.iv114, 1
  %exitcond.not = icmp eq i64 %indvars.iv.next115, %wide.trip.count
  br i1 %exitcond.not, label %.thread84, label %.lr.ph104, !llvm.loop !129

.thread84:                                        ; preds = %.loopexit97, %.lr.ph104, %24, %50, %68, %66, %.thread
  %.5 = phi i32 [ 0, %.thread ], [ 23, %66 ], [ 23, %68 ], [ 0, %.loopexit97 ], [ 23, %.lr.ph104 ], [ 23, %24 ], [ 1, %50 ]
  ret i32 %.5
}